; Function Attrs: nounwind uwtable
define dso_local void @LockRelation(ptr noundef readonly captures(none) %0, i32 noundef %1) local_unnamed_addr #1 {
  %3 = alloca %struct.LOCKTAG, align 4
  %4 = alloca ptr, align 8
  call void @llvm.lifetime.start.p0(i64 16, ptr nonnull %3) #8
  call void @llvm.lifetime.start.p0(i64 8, ptr nonnull %4) #8
  %5 = getelementptr inbounds nuw i8, ptr %0, i64 76
  %6 = getelementptr inbounds nuw i8, ptr %0, i64 80
  %7 = load i32, ptr %6, align 4
  store i32 %7, ptr %3, align 4
  %8 = load i32, ptr %5, align 4
  %9 = getelementptr inbounds nuw i8, ptr %3, i64 4
  store i32 %8, ptr %9, align 4
  %10 = getelementptr inbounds nuw i8, ptr %3, i64 8
  store i32 0, ptr %10, align 4
  %11 = getelementptr inbounds nuw i8, ptr %3, i64 12
  store i16 0, ptr %11, align 4
  %12 = getelementptr inbounds nuw i8, ptr %3, i64 14
  store i8 0, ptr %12, align 2
  %13 = getelementptr inbounds nuw i8, ptr %3, i64 15
  store i8 1, ptr %13, align 1
  %14 = call i32 @LockAcquireExtended(ptr noundef nonnull %3, i32 noundef %1, i1 noundef zeroext false, i1 noundef zeroext false, i1 noundef zeroext true, ptr noundef nonnull %4) #8
  %.not = icmp eq i32 %14, 3
  br i1 %.not, label %17, label %15

15:                                               ; preds = %2
  call void @AcceptInvalidationMessages() #8
  %16 = load ptr, ptr %4, align 8
  call void @MarkLockClear(ptr noundef %16) #8
  br label %17

17:                                               ; preds = %15, %2
  call void @llvm.lifetime.end.p0(i64 8, ptr nonnull %4) #8
  call void @llvm.lifetime.end.p0(i64 16, ptr nonnull %3) #8
  ret void
}